; Function Attrs: nounwind uwtable
define dso_local void @nsvgDeleteRasterizer(ptr noundef captures(address_is_null) %0) local_unnamed_addr #0 {
  %2 = icmp eq ptr %0, null
  br i1 %2, label %24, label %3

3:                                                ; preds = %1
  %4 = getelementptr inbounds nuw i8, ptr %0, i64 72
  %5 = load ptr, ptr %4, align 8, !tbaa !105
  %.not24 = icmp eq ptr %5, null
  br i1 %.not24, label %._crit_edge, label %.lr.ph

.lr.ph:                                           ; preds = %3, %.lr.ph
  %.025 = phi ptr [ %7, %.lr.ph ], [ %5, %3 ]
  %6 = getelementptr inbounds nuw i8, ptr %.025, i64 1032
  %7 = load ptr, ptr %6, align 8, !tbaa !106
  tail call void @free(ptr noundef nonnull %.025) #31
  %.not = icmp eq ptr %7, null
  br i1 %.not, label %._crit_edge, label %.lr.ph, !llvm.loop !108

._crit_edge:                                      ; preds = %.lr.ph, %3
  %8 = getelementptr inbounds nuw i8, ptr %0, i64 16
  %9 = load ptr, ptr %8, align 8, !tbaa !109
  %.not20 = icmp eq ptr %9, null
  br i1 %.not20, label %11, label %10

10:                                               ; preds = %._crit_edge
  tail call void @free(ptr noundef nonnull %9) #31
  br label %11

11:                                               ; preds = %10, %._crit_edge
  %12 = getelementptr inbounds nuw i8, ptr %0, i64 32
  %13 = load ptr, ptr %12, align 8, !tbaa !110
  %.not21 = icmp eq ptr %13, null
  br i1 %.not21, label %15, label %14

14:                                               ; preds = %11
  tail call void @free(ptr noundef nonnull %13) #31
  br label %15

15:                                               ; preds = %14, %11
  %16 = getelementptr inbounds nuw i8, ptr %0, i64 48
  %17 = load ptr, ptr %16, align 8, !tbaa !111
  %.not22 = icmp eq ptr %17, null
  br i1 %.not22, label %19, label %18

18:                                               ; preds = %15
  tail call void @free(ptr noundef nonnull %17) #31
  br label %19

19:                                               ; preds = %18, %15
  %20 = getelementptr inbounds nuw i8, ptr %0, i64 88
  %21 = load ptr, ptr %20, align 8, !tbaa !112
  %.not23 = icmp eq ptr %21, null
  br i1 %.not23, label %23, label %22

22:                                               ; preds = %19
  tail call void @free(ptr noundef nonnull %21) #31
  br label %23

23:                                               ; preds = %22, %19
  tail call void @free(ptr noundef nonnull %0) #31
  br label %24

24:                                               ; preds = %1, %23
  ret void
}